; Function Attrs: nounwind uwtable
define internal fastcc i32 @_handle_update_step(i32 noundef %0, i32 noundef %1) unnamed_addr #0 {
  %3 = alloca %struct.slurm_msg, align 8
  call void @llvm.lifetime.start.p0(i64 424, ptr nonnull %3) #13
  %4 = call fastcc i32 @_handle_stepmgr_relay_msg(i32 noundef %0, i32 noundef %1, ptr noundef %3, i16 noundef zeroext 5007, i1 noundef zeroext true)
  %.not = icmp eq i32 %4, 0
  br i1 %.not, label %5, label %18

5:                                                ; preds = %2
  %6 = getelementptr inbounds nuw i8, ptr %3, i64 200
  %7 = load ptr, ptr %6, align 8
  %8 = call i32 @pthread_mutex_lock(ptr noundef nonnull @stepmgr_mutex) #13
  %.not12 = icmp eq i32 %8, 0
  br i1 %.not12, label %11, label %9

9:                                                ; preds = %5
  %10 = tail call ptr @__errno_location() #14
  store i32 %8, ptr %10, align 4
  call void (ptr, ...) @fatal_abort(ptr noundef nonnull @.str.22, ptr noundef nonnull @__func__._handle_update_step) #15
  unreachable

11:                                               ; preds = %5
  %12 = call i32 @update_step(ptr noundef %7, i32 noundef %1) #13
  %13 = call i32 @pthread_mutex_unlock(ptr noundef nonnull @stepmgr_mutex) #13
  %.not13 = icmp eq i32 %13, 0
  br i1 %.not13, label %16, label %14

14:                                               ; preds = %11
  %15 = tail call ptr @__errno_location() #14
  store i32 %13, ptr %15, align 4
  call void (ptr, ...) @fatal_abort(ptr noundef nonnull @.str.23, ptr noundef nonnull @__func__._handle_update_step) #15
  unreachable

16:                                               ; preds = %11
  %17 = call i32 @slurm_send_rc_msg(ptr noundef nonnull %3, i32 noundef %12) #13
  call void @slurm_free_msg_members(ptr noundef nonnull %3) #13
  br label %18

18:                                               ; preds = %2, %16
  %.0 = phi i32 [ %4, %2 ], [ %12, %16 ]
  call void @llvm.lifetime.end.p0(i64 424, ptr nonnull %3) #13
  ret i32 %.0
}